; Function Attrs: nounwind uwtable
define internal i32 @be_openssl_get_fd(ptr noundef readonly captures(none) %0) #0 {
  %2 = getelementptr inbounds nuw i8, ptr %0, i64 528
  %3 = load ptr, ptr %2, align 8
  %4 = tail call ptr @SSL_get_wbio(ptr noundef %3) #5
  %.not = icmp eq ptr %4, null
  br i1 %.not, label %8, label %5

5:                                                ; preds = %1
  %6 = tail call i64 @BIO_ctrl(ptr noundef nonnull %4, i32 noundef 105, i64 noundef 0, ptr noundef null) #5
  %7 = trunc i64 %6 to i32
  br label %8

8:                                                ; preds = %5, %1
  %.0 = phi i32 [ %7, %5 ], [ -1, %1 ]
  ret i32 %.0
}